; Function Attrs: nounwind uwtable
define internal range(i32 -1, 60) i32 @element2(ptr noundef captures(none) %0, i32 noundef %1, ptr noundef %2, ptr noundef %3, ptr noundef %4) #1 {
  switch i32 %1, label %19 [
    i32 15, label %common.exit
    i32 20, label %6
    i32 23, label %14
    i32 18, label %common.exit.sink.split
    i32 41, label %common.exit.sink.split
    i32 30, label %16
    i32 31, label %17
    i32 32, label %18
  ]

6:                                                ; preds = %5
  %7 = getelementptr inbounds nuw i8, ptr %4, i64 48
  %8 = load ptr, ptr %7, align 8, !tbaa !12
  %9 = getelementptr inbounds nuw i8, ptr %4, i64 128
  %10 = load i32, ptr %9, align 8, !tbaa !14
  %11 = sext i32 %10 to i64
  %12 = getelementptr i8, ptr %2, i64 %11
  %13 = tail call i32 %8(ptr noundef %4, ptr noundef %12, ptr noundef %3, ptr noundef nonnull @KW_PCDATA) #5
  %.not = icmp eq i32 %13, 0
  br i1 %.not, label %.thread, label %common.exit.sink.split

14:                                               ; preds = %5
  %15 = getelementptr inbounds nuw i8, ptr %0, i64 8
  store i32 2, ptr %15, align 8, !tbaa !20
  br label %common.exit.sink.split

16:                                               ; preds = %5
  br label %common.exit.sink.split

17:                                               ; preds = %5
  br label %common.exit.sink.split

18:                                               ; preds = %5
  br label %common.exit.sink.split

19:                                               ; preds = %5
  %20 = getelementptr inbounds nuw i8, ptr %0, i64 20
  %21 = load i32, ptr %20, align 4, !tbaa !9
  %22 = icmp eq i32 %21, 0
  %23 = icmp eq i32 %1, 28
  %or.cond.i = and i1 %23, %22
  br i1 %or.cond.i, label %common.exit, label %.thread

.thread:                                          ; preds = %6, %19
  br label %common.exit.sink.split

common.exit.sink.split:                           ; preds = %5, %5, %6, %14, %16, %17, %18, %.thread
  %error.sink = phi ptr [ @error, %.thread ], [ @element7, %18 ], [ @element7, %17 ], [ @element7, %16 ], [ @element6, %14 ], [ @element3, %6 ], [ @element7, %5 ], [ @element7, %5 ]
  %.0.ph = phi i32 [ -1, %.thread ], [ 54, %18 ], [ 52, %17 ], [ 53, %16 ], [ 44, %14 ], [ 43, %6 ], [ 51, %5 ], [ 51, %5 ]
  store ptr %error.sink, ptr %0, align 8, !tbaa !3
  br label %common.exit

common.exit:                                      ; preds = %common.exit.sink.split, %19, %5
  %.0 = phi i32 [ 39, %5 ], [ 59, %19 ], [ %.0.ph, %common.exit.sink.split ]
  ret i32 %.0
}